target datalayout = "e-m:e-p270:32:32-p271:32:32-p272:64:64-i64:64-i128:128-f80:128-n8:16:32:64-S128"
target triple = "x86_64-pc-linux-gnu"

@H5_libinit_g = external global i8, align 1
@H5_libterm_g = external global i8, align 1
@H5T_NATIVE_USHORT_g = external global i64, align 8

; Function Attrs: nounwind uwtable
define i32 @H5LTget_attribute_ushort(i64 noundef %0, ptr noundef %1, ptr noundef %2, ptr noundef %3) #0 {
  %5 = alloca i32, align 4
  %6 = alloca i64, align 8
  %7 = alloca ptr, align 8
  %8 = alloca ptr, align 8
  %9 = alloca ptr, align 8
  store i64 %0, ptr %6, align 8, !tbaa !3
  store ptr %1, ptr %7, align 8, !tbaa !7
  store ptr %2, ptr %8, align 8, !tbaa !7
  store ptr %3, ptr %9, align 8, !tbaa !20
  %10 = load i64, ptr %6, align 8, !tbaa !3
  %11 = load ptr, ptr %7, align 8, !tbaa !7
  %12 = load ptr, ptr %8, align 8, !tbaa !7
  %13 = load i8, ptr @H5_libinit_g, align 1, !tbaa !16, !range !18, !noundef !19
  %14 = trunc i8 %13 to i1
  br i1 %14, label %19, label %15

15:                                               ; preds = %4
  %16 = load i8, ptr @H5_libterm_g, align 1, !tbaa !16, !range !18, !noundef !19
  %17 = trunc i8 %16 to i1
  %18 = xor i1 %17, true
  br label %19

19:                                               ; preds = %15, %4
  %20 = phi i1 [ false, %4 ], [ %18, %15 ]
  %21 = xor i1 %20, true
  %22 = xor i1 %21, true
  %23 = zext i1 %22 to i32
  %24 = sext i32 %23 to i64
  %25 = call i64 @llvm.expect.i64(i64 %24, i64 0)
  %26 = icmp ne i64 %25, 0
  br i1 %26, label %27, label %29

27:                                               ; preds = %19
  %28 = call i32 @H5open()
  br label %30

29:                                               ; preds = %19
  br label %30

30:                                               ; preds = %29, %27
  %31 = load i64, ptr @H5T_NATIVE_USHORT_g, align 8, !tbaa !3
  %32 = load ptr, ptr %9, align 8, !tbaa !20
  %33 = call i32 @H5LT_get_attribute_mem(i64 noundef %10, ptr noundef %11, ptr noundef %12, i64 noundef %31, ptr noundef %32)
  %34 = icmp slt i32 %33, 0
  br i1 %34, label %35, label %36

35:                                               ; preds = %30
  store i32 -1, ptr %5, align 4
  br label %37

36:                                               ; preds = %30
  store i32 0, ptr %5, align 4
  br label %37

37:                                               ; preds = %36, %35
  %38 = load i32, ptr %5, align 4
  ret i32 %38
}